Certificate:
    Data:
        Version: 3 (0x2)
        Serial Number: 12487335169856435182 (0xad4bed2d1e88f3ee)
    Signature Algorithm: sha1WithRSAEncryption
        Issuer: C=US, ST=California, O=TLS;DR, OU=Bad, CN=Bad Certificate Authority/emailAddress=rahul.som@gmail.com
        Validity
            Not Before: Jul  9 18:05:56 2015 GMT
            Not After : Jul  8 18:05:56 2016 GMT
        Subject: C=US, ST=California, L=Campbell, O=TLS;DR, OU=Bad Web Server, CN=bad.demo.com
        Subject Public Key Info:
            Public Key Algorithm: rsaEncryption
                Public-Key: (1024 bit)
                Modulus:
                    00:cf:e2:41:04:bc:4b:92:1c:37:83:95:54:89:fc:
                    54:2d:cf:ea:17:25:f0:b4:69:c3:64:10:48:e1:63:
                    f1:46:aa:80:32:1b:ea:74:14:01:6a:29:a9:79:ae:
                    b1:6b:62:36:80:2b:3f:53:33:f4:de:9e:ee:d4:08:
                    d4:d2:a2:09:3b:1a:fa:e7:93:89:f6:eb:17:bf:b3:
                    4f:6f:f6:4a:2b:9e:72:9c:5c:fb:26:9e:c8:cb:0b:
                    26:aa:37:5d:96:0c:80:dc:f5:d4:e4:76:00:11:cc:
                    ac:89:8e:6a:9d:0a:34:49:3d:31:cd:cb:32:13:19:
                    1e:9d:09:6d:74:5c:a6:4d:9b
                Exponent: 65537 (0x10001)
        X509v3 extensions:
            X509v3 Basic Constraints: 
                CA:FALSE
            Netscape Comment: 
                OpenSSL Generated Certificate
            X509v3 Subject Key Identifier: 
                5C:3A:6E:D6:B1:82:A7:28:9D:8E:6D:88:3C:7A:A6:3A:0A:CB:39:FB
            X509v3 Authority Key Identifier: 
                keyid:13:49:7E:F2:7E:1D:2C:52:D6:A4:0B:15:04:26:BD:E7:F8:9D:3F:A6

    Signature Algorithm: sha1WithRSAEncryption
         14:88:25:c5:62:50:62:be:c9:59:c5:8d:7a:4b:74:3f:cf:4c:
         76:53:28:e8:c8:64:37:9e:52:7e:ee:de:3a:eb:12:0b:fa:84:
         60:fd:f2:76:4a:49:c2:66:fa:82:03:a0:0a:84:9b:c3:c5:87:
         ca:ad:62:5b:49:6c:3d:07:04:cf:86:af:81:9b:87:ca:19:6f:
         c3:45:6c:38:ba:c6:73:57:04:9a:05:5f:12:9d:57:bb:44:01:
         7c:65:4a:7f:ad:e2:ce:d1:21:e5:a8:bd:1f:15:d9:ab:04:47:
         ee:a1:c0:a8:e2:3c:e4:55:b2:87:7d:16:ac:02:4f:8f:ce:c4:
         54:19
-----BEGIN CERTIFICATE-----
MIIC+TCCAmKgAwIBAgIJAK1L7S0eiPPuMA0GCSqGSIb3DQEBBQUAMIGJMQswCQYD
VQQGEwJVUzETMBEGA1UECBMKQ2FsaWZvcm5pYTEPMA0GA1UEChQGVExTO0RSMQww
CgYDVQQLEwNCYWQxIjAgBgNVBAMTGUJhZCBDZXJ0aWZpY2F0ZSBBdXRob3JpdHkx
IjAgBgkqhkiG9w0BCQEWE3JhaHVsLnNvbUBnbWFpbC5jb20wHhcNMTUwNzA5MTgw
NTU2WhcNMTYwNzA4MTgwNTU2WjB2MQswCQYDVQQGEwJVUzETMBEGA1UECBMKQ2Fs
aWZvcm5pYTERMA8GA1UEBxMIQ2FtcGJlbGwxDzANBgNVBAoUBlRMUztEUjEXMBUG
A1UECxMOQmFkIFdlYiBTZXJ2ZXIxFTATBgNVBAMTDGJhZC5kZW1vLmNvbTCBnzAN
BgkqhkiG9w0BAQEFAAOBjQAwgYkCgYEAz+JBBLxLkhw3g5VUifxULc/qFyXwtGnD
ZBBI4WPxRqqAMhvqdBQBaimpea6xa2I2gCs/UzP03p7u1AjU0qIJOxr655OJ9usX
v7NPb/ZKK55ynFz7Jp7IywsmqjddlgyA3PXU5HYAEcysiY5qnQo0ST0xzcsyExke
nQltdFymTZsCAwEAAaN7MHkwCQYDVR0TBAIwADAsBglghkgBhvhCAQ0EHxYdT3Bl
blNTTCBHZW5lcmF0ZWQgQ2VydGlmaWNhdGUwHQYDVR0OBBYEFFw6btaxgqconY5t
iDx6pjoKyzn7MB8GA1UdIwQYMBaAFBNJfvJ+HSxS1qQLFQQmvef4nT+mMA0GCSqG
SIb3DQEBBQUAA4GBABSIJcViUGK+yVnFjXpLdD/PTHZTKOjIZDeeUn7u3jrrEgv6
hGD98nZKScJm+oIDoAqEm8PFh8qtYltJbD0HBM+Gr4Gbh8oZb8NFbDi6xnNXBJoF
XxKdV7tEAXxlSn+t4s7RIeWovR8V2asER+6hwKjiPORVsod9FqwCT4/OxFQZ
-----END CERTIFICATE-----
