Certificate:
    Data:
        Version: 3 (0x2)
        Serial Number: 12487335169856435181 (0xad4bed2d1e88f3ed)
    Signature Algorithm: sha1WithRSAEncryption
        Issuer: C=US, ST=California, O=TLS;DR, OU=Bad, CN=Bad Certificate Authority/emailAddress=rahul.som@gmail.com
        Validity
            Not Before: Jul  9 15:53:06 2015 GMT
            Not After : Jul  8 15:53:06 2018 GMT
        Subject: C=US, ST=California, O=TLS;DR, OU=Bad, CN=Bad Certificate Authority/emailAddress=rahul.som@gmail.com
        Subject Public Key Info:
            Public Key Algorithm: rsaEncryption
                Public-Key: (1024 bit)
                Modulus:
                    00:de:0b:20:05:90:75:6a:a4:30:3a:99:34:da:06:
                    ce:17:da:64:4c:11:78:2d:1f:33:0e:1a:77:48:11:
                    2f:0b:f5:4a:21:49:1a:71:43:78:d6:c6:66:4b:34:
                    83:26:b1:9d:17:13:47:92:1a:79:09:b6:9d:68:eb:
                    87:e3:04:58:43:61:c4:ef:fd:38:9e:7d:ea:e6:3d:
                    cf:bb:00:c8:b8:2c:3e:03:d8:d0:ca:f6:d3:24:73:
                    c0:3a:bd:46:b9:7f:d5:6c:24:60:24:ac:9d:ed:42:
                    97:7d:63:58:0f:40:4f:46:48:d7:4d:47:98:42:c8:
                    47:7d:33:f6:dd:b3:af:ca:ad
                Exponent: 65537 (0x10001)
        X509v3 extensions:
            X509v3 Subject Key Identifier: 
                13:49:7E:F2:7E:1D:2C:52:D6:A4:0B:15:04:26:BD:E7:F8:9D:3F:A6
            X509v3 Authority Key Identifier: 
                keyid:13:49:7E:F2:7E:1D:2C:52:D6:A4:0B:15:04:26:BD:E7:F8:9D:3F:A6
                DirName:/C=US/ST=California/O=TLS;DR/OU=Bad/CN=Bad Certificate Authority/emailAddress=rahul.som@gmail.com
                serial:AD:4B:ED:2D:1E:88:F3:ED

            X509v3 Basic Constraints: 
                CA:TRUE
    Signature Algorithm: sha1WithRSAEncryption
         ca:6c:94:04:41:76:2e:2c:26:4b:25:58:e7:11:43:1e:1e:a5:
         02:bc:31:0d:af:a0:d7:8b:64:10:08:18:fa:7d:dc:d9:b1:77:
         46:f8:ea:1e:9d:9e:a4:88:ce:bc:e2:19:50:0c:be:43:91:89:
         8f:6e:93:99:c2:71:5a:87:d8:94:6b:63:1b:24:4a:32:94:e4:
         98:1d:4b:fb:45:52:8d:39:72:67:59:91:0a:c4:40:10:f7:aa:
         04:55:04:fb:f9:9e:5e:3c:63:db:59:a1:54:9d:d9:06:86:f3:
         de:df:da:6b:92:96:96:e0:4f:81:9a:79:14:ed:35:a8:94:ee:
         82:97
-----BEGIN CERTIFICATE-----
MIIDhDCCAu2gAwIBAgIJAK1L7S0eiPPtMA0GCSqGSIb3DQEBBQUAMIGJMQswCQYD
VQQGEwJVUzETMBEGA1UECBMKQ2FsaWZvcm5pYTEPMA0GA1UEChQGVExTO0RSMQww
CgYDVQQLEwNCYWQxIjAgBgNVBAMTGUJhZCBDZXJ0aWZpY2F0ZSBBdXRob3JpdHkx
IjAgBgkqhkiG9w0BCQEWE3JhaHVsLnNvbUBnbWFpbC5jb20wHhcNMTUwNzA5MTU1
MzA2WhcNMTgwNzA4MTU1MzA2WjCBiTELMAkGA1UEBhMCVVMxEzARBgNVBAgTCkNh
bGlmb3JuaWExDzANBgNVBAoUBlRMUztEUjEMMAoGA1UECxMDQmFkMSIwIAYDVQQD
ExlCYWQgQ2VydGlmaWNhdGUgQXV0aG9yaXR5MSIwIAYJKoZIhvcNAQkBFhNyYWh1
bC5zb21AZ21haWwuY29tMIGfMA0GCSqGSIb3DQEBAQUAA4GNADCBiQKBgQDeCyAF
kHVqpDA6mTTaBs4X2mRMEXgtHzMOGndIES8L9UohSRpxQ3jWxmZLNIMmsZ0XE0eS
GnkJtp1o64fjBFhDYcTv/TiefermPc+7AMi4LD4D2NDK9tMkc8A6vUa5f9VsJGAk
rJ3tQpd9Y1gPQE9GSNdNR5hCyEd9M/bds6/KrQIDAQABo4HxMIHuMB0GA1UdDgQW
BBQTSX7yfh0sUtakCxUEJr3n+J0/pjCBvgYDVR0jBIG2MIGzgBQTSX7yfh0sUtak
CxUEJr3n+J0/pqGBj6SBjDCBiTELMAkGA1UEBhMCVVMxEzARBgNVBAgTCkNhbGlm
b3JuaWExDzANBgNVBAoUBlRMUztEUjEMMAoGA1UECxMDQmFkMSIwIAYDVQQDExlC
YWQgQ2VydGlmaWNhdGUgQXV0aG9yaXR5MSIwIAYJKoZIhvcNAQkBFhNyYWh1bC5z
b21AZ21haWwuY29tggkArUvtLR6I8+0wDAYDVR0TBAUwAwEB/zANBgkqhkiG9w0B
AQUFAAOBgQDKbJQEQXYuLCZLJVjnEUMeHqUCvDENr6DXi2QQCBj6fdzZsXdG+Ooe
nZ6kiM684hlQDL5DkYmPbpOZwnFah9iUa2MbJEoylOSYHUv7RVKNOXJnWZEKxEAQ
96oEVQT7+Z5ePGPbWaFUndkGhvPe39prkpaW4E+BmnkU7TWolO6Clw==
-----END CERTIFICATE-----
