Certificate:
    Data:
        Version: 3 (0x2)
        Serial Number: 11369549370214272251 (0x9dc8c0e9ebe34cfb)
    Signature Algorithm: sha1WithRSAEncryption
        Issuer: C=US, ST=California, O=TLS;DR, OU=Good, CN=Good Certificate Authority/emailAddress=rahul.som@gmail.com
        Validity
            Not Before: Jul  9 15:51:58 2015 GMT
            Not After : Jul  8 15:51:58 2018 GMT
        Subject: C=US, ST=California, O=TLS;DR, OU=Good, CN=Good Certificate Authority/emailAddress=rahul.som@gmail.com
        Subject Public Key Info:
            Public Key Algorithm: rsaEncryption
                Public-Key: (1024 bit)
                Modulus:
                    00:b9:7c:67:7c:35:96:02:11:dc:dd:3c:16:4d:db:
                    f6:b7:6a:24:d2:17:4d:1c:25:8b:e7:e4:f4:bb:56:
                    d2:5d:e7:8d:c1:00:80:b9:51:53:fa:28:30:8a:9b:
                    13:cc:1a:50:bc:04:1c:0e:88:e9:71:ed:63:0c:81:
                    80:a1:c7:d2:94:ec:12:c4:08:0d:66:d5:1b:fd:a9:
                    8b:97:20:7b:22:7f:82:ae:ed:d3:5f:d6:c1:6f:0d:
                    26:26:e6:18:5e:8a:b9:0f:06:f4:e6:34:29:95:ad:
                    7a:6e:24:8d:89:c2:c7:61:41:8e:2a:38:94:e7:78:
                    b6:68:4b:b8:4e:c5:5e:8b:2d
                Exponent: 65537 (0x10001)
        X509v3 extensions:
            X509v3 Subject Key Identifier: 
                C1:D4:70:41:55:DF:C3:0F:63:6C:BA:DA:2D:3A:74:B1:76:4A:1E:29
            X509v3 Authority Key Identifier: 
                keyid:C1:D4:70:41:55:DF:C3:0F:63:6C:BA:DA:2D:3A:74:B1:76:4A:1E:29
                DirName:/C=US/ST=California/O=TLS;DR/OU=Good/CN=Good Certificate Authority/emailAddress=rahul.som@gmail.com
                serial:9D:C8:C0:E9:EB:E3:4C:FB

            X509v3 Basic Constraints: 
                CA:TRUE
    Signature Algorithm: sha1WithRSAEncryption
         62:12:83:ec:74:27:27:18:6c:49:f0:3d:c3:cb:37:9a:f3:bf:
         af:46:ce:b9:57:53:88:00:2d:bb:fb:44:80:42:e5:61:86:72:
         93:d6:c1:75:91:cc:f0:35:5d:7f:e8:3d:cf:31:a3:2a:b0:23:
         7b:97:4b:39:dd:3d:d3:ae:b7:97:c6:8f:9e:1c:0f:c7:9b:78:
         62:1b:bb:e5:17:46:cc:e3:79:c2:d2:d3:95:cd:08:9e:1a:ee:
         b1:b5:48:5d:5e:48:05:94:b4:ab:6a:84:a9:11:88:22:e2:0c:
         e0:84:1f:7d:13:ac:47:c1:5c:c5:9e:c4:6a:ba:98:23:97:57:
         21:34
-----BEGIN CERTIFICATE-----
MIIDijCCAvOgAwIBAgIJAJ3IwOnr40z7MA0GCSqGSIb3DQEBBQUAMIGLMQswCQYD
VQQGEwJVUzETMBEGA1UECBMKQ2FsaWZvcm5pYTEPMA0GA1UEChQGVExTO0RSMQ0w
CwYDVQQLEwRHb29kMSMwIQYDVQQDExpHb29kIENlcnRpZmljYXRlIEF1dGhvcml0
eTEiMCAGCSqGSIb3DQEJARYTcmFodWwuc29tQGdtYWlsLmNvbTAeFw0xNTA3MDkx
NTUxNThaFw0xODA3MDgxNTUxNThaMIGLMQswCQYDVQQGEwJVUzETMBEGA1UECBMK
Q2FsaWZvcm5pYTEPMA0GA1UEChQGVExTO0RSMQ0wCwYDVQQLEwRHb29kMSMwIQYD
VQQDExpHb29kIENlcnRpZmljYXRlIEF1dGhvcml0eTEiMCAGCSqGSIb3DQEJARYT
cmFodWwuc29tQGdtYWlsLmNvbTCBnzANBgkqhkiG9w0BAQEFAAOBjQAwgYkCgYEA
uXxnfDWWAhHc3TwWTdv2t2ok0hdNHCWL5+T0u1bSXeeNwQCAuVFT+igwipsTzBpQ
vAQcDojpce1jDIGAocfSlOwSxAgNZtUb/amLlyB7In+Cru3TX9bBbw0mJuYYXoq5
Dwb05jQpla16biSNicLHYUGOKjiU53i2aEu4TsVeiy0CAwEAAaOB8zCB8DAdBgNV
HQ4EFgQUwdRwQVXfww9jbLraLTp0sXZKHikwgcAGA1UdIwSBuDCBtYAUwdRwQVXf
ww9jbLraLTp0sXZKHimhgZGkgY4wgYsxCzAJBgNVBAYTAlVTMRMwEQYDVQQIEwpD
YWxpZm9ybmlhMQ8wDQYDVQQKFAZUTFM7RFIxDTALBgNVBAsTBEdvb2QxIzAhBgNV
BAMTGkdvb2QgQ2VydGlmaWNhdGUgQXV0aG9yaXR5MSIwIAYJKoZIhvcNAQkBFhNy
YWh1bC5zb21AZ21haWwuY29tggkAncjA6evjTPswDAYDVR0TBAUwAwEB/zANBgkq
hkiG9w0BAQUFAAOBgQBiEoPsdCcnGGxJ8D3Dyzea87+vRs65V1OIAC27+0SAQuVh
hnKT1sF1kczwNV1/6D3PMaMqsCN7l0s53T3TrreXxo+eHA/Hm3hiG7vlF0bM43nC
0tOVzQieGu6xtUhdXkgFlLSraoSpEYgi4gzghB99E6xHwVzFnsRqupgjl1chNA==
-----END CERTIFICATE-----
