Certificate:
    Data:
        Version: 3 (0x2)
        Serial Number: 11369549370214272253 (0x9dc8c0e9ebe34cfd)
    Signature Algorithm: sha1WithRSAEncryption
        Issuer: C=US, ST=California, O=TLS;DR, OU=Good, CN=Good Certificate Authority/emailAddress=rahul.som@gmail.com
        Validity
            Not Before: Jul  9 17:14:48 2015 GMT
            Not After : Jul  8 17:14:48 2016 GMT
        Subject: C=US, ST=California, L=Campbell, O=TLS;DR, OU=Trusted Web Server Demanding Mutual Auth, CN=mutual.demo.com
        Subject Public Key Info:
            Public Key Algorithm: rsaEncryption
                Public-Key: (1024 bit)
                Modulus:
                    00:ba:9b:be:4f:1d:82:93:ec:14:c0:4c:31:6e:cc:
                    ab:12:f8:95:a2:e8:78:13:57:70:88:18:14:69:bf:
                    e3:b8:b1:d1:b1:96:ca:65:c5:41:a5:18:fa:53:2b:
                    19:c0:cd:8c:40:a5:e2:b7:67:2b:2a:e2:11:4a:af:
                    3d:b9:ba:ff:97:fd:ea:5e:5e:60:cc:a6:c6:ab:09:
                    d6:f4:8e:ba:fe:e8:3d:bf:34:95:dc:fa:a4:e6:3e:
                    b4:72:50:e1:c1:59:f5:00:b8:6b:e0:56:9c:4b:9d:
                    99:b1:0a:fb:4f:a5:3a:d9:64:9b:3f:e7:32:0a:c1:
                    bb:68:0d:76:a5:f3:2f:4f:9f
                Exponent: 65537 (0x10001)
        X509v3 extensions:
            X509v3 Basic Constraints: 
                CA:FALSE
            Netscape Comment: 
                OpenSSL Generated Certificate
            X509v3 Subject Key Identifier: 
                B1:2A:F0:6A:A2:C1:E8:A9:47:B7:C2:9B:43:AF:1C:CC:80:40:44:5D
            X509v3 Authority Key Identifier: 
                keyid:C1:D4:70:41:55:DF:C3:0F:63:6C:BA:DA:2D:3A:74:B1:76:4A:1E:29

    Signature Algorithm: sha1WithRSAEncryption
         06:88:d4:34:d4:54:ee:b9:a5:f0:dd:0d:2c:ab:1d:69:46:de:
         14:96:f8:96:d3:b3:91:90:e0:93:93:42:2d:2a:55:94:fa:b0:
         fe:88:57:46:83:42:ed:07:88:0e:95:a2:d6:19:ea:04:06:de:
         29:d9:27:4f:9a:d3:cc:6e:b7:30:65:da:a0:2f:1e:bf:4f:5c:
         b4:d1:20:7b:b9:6b:6e:ef:d7:b6:12:05:5d:5e:6f:7e:e3:d3:
         cb:f0:15:cb:d3:5d:84:cc:7a:8e:4f:87:47:1d:07:1c:3c:55:
         8b:70:79:22:f2:ad:ee:bc:c3:00:e1:30:1a:d1:62:ed:89:05:
         bf:e7
-----BEGIN CERTIFICATE-----
MIIDGTCCAoKgAwIBAgIJAJ3IwOnr40z9MA0GCSqGSIb3DQEBBQUAMIGLMQswCQYD
VQQGEwJVUzETMBEGA1UECBMKQ2FsaWZvcm5pYTEPMA0GA1UEChQGVExTO0RSMQ0w
CwYDVQQLEwRHb29kMSMwIQYDVQQDExpHb29kIENlcnRpZmljYXRlIEF1dGhvcml0
eTEiMCAGCSqGSIb3DQEJARYTcmFodWwuc29tQGdtYWlsLmNvbTAeFw0xNTA3MDkx
NzE0NDhaFw0xNjA3MDgxNzE0NDhaMIGTMQswCQYDVQQGEwJVUzETMBEGA1UECBMK
Q2FsaWZvcm5pYTERMA8GA1UEBxMIQ2FtcGJlbGwxDzANBgNVBAoUBlRMUztEUjEx
MC8GA1UECxMoVHJ1c3RlZCBXZWIgU2VydmVyIERlbWFuZGluZyBNdXR1YWwgQXV0
aDEYMBYGA1UEAxMPbXV0dWFsLmRlbW8uY29tMIGfMA0GCSqGSIb3DQEBAQUAA4GN
ADCBiQKBgQC6m75PHYKT7BTATDFuzKsS+JWi6HgTV3CIGBRpv+O4sdGxlsplxUGl
GPpTKxnAzYxApeK3Zysq4hFKrz25uv+X/epeXmDMpsarCdb0jrr+6D2/NJXc+qTm
PrRyUOHBWfUAuGvgVpxLnZmxCvtPpTrZZJs/5zIKwbtoDXal8y9PnwIDAQABo3sw
eTAJBgNVHRMEAjAAMCwGCWCGSAGG+EIBDQQfFh1PcGVuU1NMIEdlbmVyYXRlZCBD
ZXJ0aWZpY2F0ZTAdBgNVHQ4EFgQUsSrwaqLB6KlHt8KbQ68czIBARF0wHwYDVR0j
BBgwFoAUwdRwQVXfww9jbLraLTp0sXZKHikwDQYJKoZIhvcNAQEFBQADgYEABojU
NNRU7rml8N0NLKsdaUbeFJb4ltOzkZDgk5NCLSpVlPqw/ohXRoNC7QeIDpWi1hnq
BAbeKdknT5rTzG63MGXaoC8ev09ctNEge7lrbu/XthIFXV5vfuPTy/AVy9NdhMx6
jk+HRx0HHDxVi3B5IvKt7rzDAOEwGtFi7YkFv+c=
-----END CERTIFICATE-----
