Certificate:
    Data:
        Version: 3 (0x2)
        Serial Number: 11369549370214272254 (0x9dc8c0e9ebe34cfe)
    Signature Algorithm: sha1WithRSAEncryption
        Issuer: C=US, ST=California, O=TLS;DR, OU=Good, CN=Good Certificate Authority/emailAddress=rahul.som@gmail.com
        Validity
            Not Before: Jul  9 23:24:58 2015 GMT
            Not After : Jul  8 23:24:58 2016 GMT
        Subject: C=US, ST=California, L=Campbell, O=TLS;DR, OU=Good Client, CN=goodclient
        Subject Public Key Info:
            Public Key Algorithm: rsaEncryption
                Public-Key: (1024 bit)
                Modulus:
                    00:b1:08:2d:5e:34:74:e1:b2:53:1e:b8:e2:eb:c1:
                    31:9b:23:cc:2a:56:c3:66:68:14:02:fc:ef:f4:23:
                    4c:dd:6d:ec:9e:7e:a5:86:8b:7c:73:a6:59:80:e6:
                    b1:4c:1b:b9:78:8d:42:e7:34:6e:32:69:9e:ac:21:
                    f3:d9:4a:85:58:bd:db:5c:00:6b:f0:57:32:4d:df:
                    34:2a:0d:5e:99:3c:0c:ef:0c:07:05:9b:e1:28:db:
                    e8:8d:f0:68:dc:4c:e1:78:4b:b2:dd:71:e1:0c:20:
                    13:c2:77:eb:70:ce:77:d6:74:2a:7a:90:b4:6e:16:
                    73:ea:2d:7f:b7:82:75:7a:55
                Exponent: 65537 (0x10001)
        X509v3 extensions:
            X509v3 Basic Constraints: 
                CA:FALSE
            Netscape Comment: 
                OpenSSL Generated Certificate
            X509v3 Subject Key Identifier: 
                71:84:84:F4:78:89:2E:CC:E9:8C:C3:94:D9:3E:C2:75:43:CE:C7:CA
            X509v3 Authority Key Identifier: 
                keyid:C1:D4:70:41:55:DF:C3:0F:63:6C:BA:DA:2D:3A:74:B1:76:4A:1E:29

    Signature Algorithm: sha1WithRSAEncryption
         a0:fa:b6:84:fd:ab:6b:f8:cc:50:e0:ec:96:96:07:b9:f0:4f:
         6f:6c:c8:2c:4d:b4:84:4e:ec:21:2f:06:0f:a3:59:bd:a1:59:
         4c:c3:47:1d:9c:a0:a5:52:f5:e8:7a:1d:a0:03:54:26:1d:5a:
         31:34:ef:0a:6d:95:6e:a2:26:96:10:0e:ca:27:81:d5:4d:71:
         48:47:d6:de:74:c1:23:60:2e:00:79:8b:f4:84:1d:4b:dd:fa:
         a4:a2:80:f7:08:cb:11:24:48:a3:2b:bd:50:6f:5f:8b:b0:76:
         8d:8a:50:01:ee:d2:e7:8f:16:cd:11:46:58:32:89:cc:d7:e7:
         d5:87
-----BEGIN CERTIFICATE-----
MIIC9jCCAl+gAwIBAgIJAJ3IwOnr40z+MA0GCSqGSIb3DQEBBQUAMIGLMQswCQYD
VQQGEwJVUzETMBEGA1UECBMKQ2FsaWZvcm5pYTEPMA0GA1UEChQGVExTO0RSMQ0w
CwYDVQQLEwRHb29kMSMwIQYDVQQDExpHb29kIENlcnRpZmljYXRlIEF1dGhvcml0
eTEiMCAGCSqGSIb3DQEJARYTcmFodWwuc29tQGdtYWlsLmNvbTAeFw0xNTA3MDky
MzI0NThaFw0xNjA3MDgyMzI0NThaMHExCzAJBgNVBAYTAlVTMRMwEQYDVQQIEwpD
YWxpZm9ybmlhMREwDwYDVQQHEwhDYW1wYmVsbDEPMA0GA1UEChQGVExTO0RSMRQw
EgYDVQQLEwtHb29kIENsaWVudDETMBEGA1UEAxMKZ29vZGNsaWVudDCBnzANBgkq
hkiG9w0BAQEFAAOBjQAwgYkCgYEAsQgtXjR04bJTHrji68ExmyPMKlbDZmgUAvzv
9CNM3W3snn6lhot8c6ZZgOaxTBu5eI1C5zRuMmmerCHz2UqFWL3bXABr8FcyTd80
Kg1emTwM7wwHBZvhKNvojfBo3EzheEuy3XHhDCATwnfrcM531nQqepC0bhZz6i1/
t4J1elUCAwEAAaN7MHkwCQYDVR0TBAIwADAsBglghkgBhvhCAQ0EHxYdT3BlblNT
TCBHZW5lcmF0ZWQgQ2VydGlmaWNhdGUwHQYDVR0OBBYEFHGEhPR4iS7M6YzDlNk+
wnVDzsfKMB8GA1UdIwQYMBaAFMHUcEFV38MPY2y62i06dLF2Sh4pMA0GCSqGSIb3
DQEBBQUAA4GBAKD6toT9q2v4zFDg7JaWB7nwT29syCxNtIRO7CEvBg+jWb2hWUzD
Rx2coKVS9eh6HaADVCYdWjE07wptlW6iJpYQDsongdVNcUhH1t50wSNgLgB5i/SE
HUvd+qSigPcIyxEkSKMrvVBvX4uwdo2KUAHu0uePFs0RRlgyiczX59WH
-----END CERTIFICATE-----
