Certificate:
    Data:
        Version: 3 (0x2)
        Serial Number: 11369549370214272252 (0x9dc8c0e9ebe34cfc)
    Signature Algorithm: sha1WithRSAEncryption
        Issuer: C=US, ST=California, O=TLS;DR, OU=Good, CN=Good Certificate Authority/emailAddress=rahul.som@gmail.com
        Validity
            Not Before: Jul  9 16:52:58 2015 GMT
            Not After : Jul  8 16:52:58 2016 GMT
        Subject: C=US, ST=California, L=Campbell, O=TLS;DR, OU=Trusted Web Server, CN=trusted.demo.com
        Subject Public Key Info:
            Public Key Algorithm: rsaEncryption
                Public-Key: (1024 bit)
                Modulus:
                    00:ba:82:d0:e7:d4:8d:2a:ee:87:b2:10:6b:f4:aa:
                    c4:b6:cd:15:98:8c:dd:f5:29:28:96:61:c7:b7:44:
                    01:94:28:e0:94:0c:86:2f:42:86:a6:0b:44:5b:f2:
                    f6:90:ef:50:18:33:b1:45:21:5c:2e:8a:75:d0:45:
                    11:7b:d3:83:3b:d0:3a:7e:7c:1a:87:80:95:04:e8:
                    c4:c8:fc:41:7a:94:c3:3b:2f:e8:89:4a:d9:c5:85:
                    46:04:b5:f2:48:e6:54:aa:90:f6:04:e5:cc:60:63:
                    82:d1:62:59:de:6e:a0:5f:c7:02:be:83:8a:8b:39:
                    8a:dd:f5:cb:eb:cb:3a:9d:75
                Exponent: 65537 (0x10001)
        X509v3 extensions:
            X509v3 Basic Constraints: 
                CA:FALSE
            Netscape Comment: 
                OpenSSL Generated Certificate
            X509v3 Subject Key Identifier: 
                B7:BC:68:72:E6:02:EA:F8:41:03:5A:0D:2E:39:0A:15:59:28:E3:BE
            X509v3 Authority Key Identifier: 
                keyid:C1:D4:70:41:55:DF:C3:0F:63:6C:BA:DA:2D:3A:74:B1:76:4A:1E:29

    Signature Algorithm: sha1WithRSAEncryption
         9e:8c:39:db:fd:bd:65:53:59:1c:7a:25:f1:f4:25:b7:99:df:
         d2:8c:a9:45:3e:ad:cd:c7:b9:ed:b5:33:76:7f:9c:2b:f5:7f:
         ea:fa:7e:a1:53:b8:ba:6b:07:1d:fc:fa:fb:92:dc:35:22:56:
         36:f5:ed:b0:a4:42:8f:26:18:fa:00:1a:f9:ea:ee:de:c8:50:
         fe:ca:6f:43:58:6b:57:d9:0e:5d:2c:17:31:ab:41:f9:0e:e2:
         18:97:52:44:78:ac:0d:49:03:b6:95:60:84:12:f3:64:92:d2:
         44:60:e2:65:4e:cf:c2:5c:73:c3:28:40:fc:28:c7:a3:45:40:
         7a:2e
-----BEGIN CERTIFICATE-----
MIIDAzCCAmygAwIBAgIJAJ3IwOnr40z8MA0GCSqGSIb3DQEBBQUAMIGLMQswCQYD
VQQGEwJVUzETMBEGA1UECBMKQ2FsaWZvcm5pYTEPMA0GA1UEChQGVExTO0RSMQ0w
CwYDVQQLEwRHb29kMSMwIQYDVQQDExpHb29kIENlcnRpZmljYXRlIEF1dGhvcml0
eTEiMCAGCSqGSIb3DQEJARYTcmFodWwuc29tQGdtYWlsLmNvbTAeFw0xNTA3MDkx
NjUyNThaFw0xNjA3MDgxNjUyNThaMH4xCzAJBgNVBAYTAlVTMRMwEQYDVQQIEwpD
YWxpZm9ybmlhMREwDwYDVQQHEwhDYW1wYmVsbDEPMA0GA1UEChQGVExTO0RSMRsw
GQYDVQQLExJUcnVzdGVkIFdlYiBTZXJ2ZXIxGTAXBgNVBAMTEHRydXN0ZWQuZGVt
by5jb20wgZ8wDQYJKoZIhvcNAQEBBQADgY0AMIGJAoGBALqC0OfUjSruh7IQa/Sq
xLbNFZiM3fUpKJZhx7dEAZQo4JQMhi9ChqYLRFvy9pDvUBgzsUUhXC6KddBFEXvT
gzvQOn58GoeAlQToxMj8QXqUwzsv6IlK2cWFRgS18kjmVKqQ9gTlzGBjgtFiWd5u
oF/HAr6Dios5it31y+vLOp11AgMBAAGjezB5MAkGA1UdEwQCMAAwLAYJYIZIAYb4
QgENBB8WHU9wZW5TU0wgR2VuZXJhdGVkIENlcnRpZmljYXRlMB0GA1UdDgQWBBS3
vGhy5gLq+EEDWg0uOQoVWSjjvjAfBgNVHSMEGDAWgBTB1HBBVd/DD2NsutotOnSx
dkoeKTANBgkqhkiG9w0BAQUFAAOBgQCejDnb/b1lU1kceiXx9CW3md/SjKlFPq3N
x7nttTN2f5wr9X/q+n6hU7i6awcd/Pr7ktw1IlY29e2wpEKPJhj6ABr56u7eyFD+
ym9DWGtX2Q5dLBcxq0H5DuIYl1JEeKwNSQO2lWCEEvNkktJEYOJlTs/CXHPDKED8
KMejRUB6Lg==
-----END CERTIFICATE-----
