Certificate:
    Data:
        Version: 3 (0x2)
        Serial Number: 12487335169856435183 (0xad4bed2d1e88f3ef)
    Signature Algorithm: sha1WithRSAEncryption
        Issuer: C=US, ST=California, O=TLS;DR, OU=Bad, CN=Bad Certificate Authority/emailAddress=rahul.som@gmail.com
        Validity
            Not Before: Jul  9 23:26:59 2015 GMT
            Not After : Jul  8 23:26:59 2016 GMT
        Subject: C=US, ST=California, L=Campbell, O=TLS;DR, OU=Bad Client, CN=badclient
        Subject Public Key Info:
            Public Key Algorithm: rsaEncryption
                Public-Key: (1024 bit)
                Modulus:
                    00:ca:51:dc:22:dc:c1:c1:50:01:0a:e0:46:1d:4d:
                    01:74:d0:74:e0:a1:2c:97:ed:8e:37:94:58:91:77:
                    6b:f6:52:17:81:90:5e:97:14:2c:dd:86:cc:1e:44:
                    4d:9d:d8:74:4c:d9:38:63:3f:1b:71:cf:2f:ac:17:
                    5d:05:85:a0:82:c8:9e:15:1c:cf:ca:eb:16:ee:7d:
                    5c:a1:f5:a0:d0:9e:8f:4e:58:9b:c1:fd:b4:12:d9:
                    67:d0:c1:99:0a:c1:df:5f:81:b4:6d:01:63:30:b3:
                    7e:ba:c3:7b:6d:cf:89:fe:71:b9:aa:ee:e2:a0:07:
                    c8:de:2e:4e:4a:d8:6a:b5:85
                Exponent: 65537 (0x10001)
        X509v3 extensions:
            X509v3 Basic Constraints: 
                CA:FALSE
            Netscape Comment: 
                OpenSSL Generated Certificate
            X509v3 Subject Key Identifier: 
                3B:63:1A:AB:95:52:E2:CF:69:EC:20:6D:1E:C9:92:46:BC:62:AF:DD
            X509v3 Authority Key Identifier: 
                keyid:13:49:7E:F2:7E:1D:2C:52:D6:A4:0B:15:04:26:BD:E7:F8:9D:3F:A6

    Signature Algorithm: sha1WithRSAEncryption
         c0:f9:35:4f:9b:46:67:da:29:98:ca:5f:0c:a5:a2:65:e0:34:
         bd:42:16:4d:c1:45:0b:54:fb:ac:bb:49:fc:3b:b8:ac:1c:a6:
         20:88:f0:a7:f3:0c:22:90:0f:31:42:bb:47:bf:2d:06:77:31:
         dd:15:bb:9b:1e:42:39:f2:49:0b:f3:4d:45:23:67:0e:f8:09:
         54:bc:3f:5c:cc:35:24:4f:67:07:5d:25:71:7c:51:a5:7e:38:
         b1:e1:25:31:4b:c2:b2:f7:51:b8:99:1a:46:57:65:b1:94:5d:
         a6:99:3e:73:8a:0c:43:c1:87:6c:88:fe:ce:a8:c9:57:4d:5f:
         a9:7e
-----BEGIN CERTIFICATE-----
MIIC8jCCAlugAwIBAgIJAK1L7S0eiPPvMA0GCSqGSIb3DQEBBQUAMIGJMQswCQYD
VQQGEwJVUzETMBEGA1UECBMKQ2FsaWZvcm5pYTEPMA0GA1UEChQGVExTO0RSMQww
CgYDVQQLEwNCYWQxIjAgBgNVBAMTGUJhZCBDZXJ0aWZpY2F0ZSBBdXRob3JpdHkx
IjAgBgkqhkiG9w0BCQEWE3JhaHVsLnNvbUBnbWFpbC5jb20wHhcNMTUwNzA5MjMy
NjU5WhcNMTYwNzA4MjMyNjU5WjBvMQswCQYDVQQGEwJVUzETMBEGA1UECBMKQ2Fs
aWZvcm5pYTERMA8GA1UEBxMIQ2FtcGJlbGwxDzANBgNVBAoUBlRMUztEUjETMBEG
A1UECxMKQmFkIENsaWVudDESMBAGA1UEAxMJYmFkY2xpZW50MIGfMA0GCSqGSIb3
DQEBAQUAA4GNADCBiQKBgQDKUdwi3MHBUAEK4EYdTQF00HTgoSyX7Y43lFiRd2v2
UheBkF6XFCzdhsweRE2d2HRM2ThjPxtxzy+sF10FhaCCyJ4VHM/K6xbufVyh9aDQ
no9OWJvB/bQS2WfQwZkKwd9fgbRtAWMws366w3ttz4n+cbmq7uKgB8jeLk5K2Gq1
hQIDAQABo3sweTAJBgNVHRMEAjAAMCwGCWCGSAGG+EIBDQQfFh1PcGVuU1NMIEdl
bmVyYXRlZCBDZXJ0aWZpY2F0ZTAdBgNVHQ4EFgQUO2Maq5VS4s9p7CBtHsmSRrxi
r90wHwYDVR0jBBgwFoAUE0l+8n4dLFLWpAsVBCa95/idP6YwDQYJKoZIhvcNAQEF
BQADgYEAwPk1T5tGZ9opmMpfDKWiZeA0vUIWTcFFC1T7rLtJ/Du4rBymIIjwp/MM
IpAPMUK7R78tBncx3RW7mx5COfJJC/NNRSNnDvgJVLw/XMw1JE9nB10lcXxRpX44
seElMUvCsvdRuJkaRldlsZRdppk+c4oMQ8GHbIj+zqjJV01fqX4=
-----END CERTIFICATE-----
